target datalayout = "e-m:e-p270:32:32-p271:32:32-p272:64:64-i64:64-i128:128-f80:128-n8:16:32:64-S128"
target triple = "x86_64-unknown-linux-gnu"

%"class.icu_75::CharsetDetector" = type { ptr, ptr, i32, i8, i8, ptr }

; Function Attrs: mustprogress nounwind uwtable
define noundef signext i8 @_ZN6icu_7515CharsetDetector16setStripTagsFlagEa(ptr noundef nonnull align 8 dereferenceable(32) %this, i8 noundef signext %flag) #3 align 2 {
entry:
  %this.addr = alloca ptr, align 8
  %flag.addr = alloca i8, align 1
  %temp = alloca i8, align 1
  store ptr %this, ptr %this.addr, align 8
  store i8 %flag, ptr %flag.addr, align 1
  %this1 = load ptr, ptr %this.addr, align 8
  %fStripTags = getelementptr inbounds %"class.icu_75::CharsetDetector", ptr %this1, i32 0, i32 3
  %0 = load i8, ptr %fStripTags, align 4
  store i8 %0, ptr %temp, align 1
  %1 = load i8, ptr %flag.addr, align 1
  %fStripTags2 = getelementptr inbounds %"class.icu_75::CharsetDetector", ptr %this1, i32 0, i32 3
  store i8 %1, ptr %fStripTags2, align 4
  %fFreshTextSet = getelementptr inbounds %"class.icu_75::CharsetDetector", ptr %this1, i32 0, i32 4
  store i8 1, ptr %fFreshTextSet, align 1
  %2 = load i8, ptr %temp, align 1
  ret i8 %2
}