; Function Attrs: mustprogress nofree norecurse nosync nounwind willreturn memory(argmem: readwrite) uwtable
define noundef signext i8 @_ZN6icu_7515CharsetDetector16setStripTagsFlagEa(ptr nocapture noundef nonnull align 8 dereferenceable(32) %this, i8 noundef signext %flag) local_unnamed_addr #6 align 2 {
entry:
  %fStripTags = getelementptr inbounds i8, ptr %this, i64 20
  %0 = load i8, ptr %fStripTags, align 4
  store i8 %flag, ptr %fStripTags, align 4
  %fFreshTextSet = getelementptr inbounds i8, ptr %this, i64 21
  store i8 1, ptr %fFreshTextSet, align 1
  ret i8 %0
}